target datalayout = "e-m:e-p270:32:32-p271:32:32-p272:64:64-i64:64-i128:128-f80:128-n8:16:32:64-S128"
target triple = "x86_64-pc-linux-gnu"

%struct.URLContext = type { ptr, ptr, ptr, ptr, i32, i32, i32, i32, %struct.AVIOInterruptCB, i64, ptr, ptr, i32 }
%struct.AVIOInterruptCB = type { ptr, ptr }
%struct.URLProtocol = type { ptr, ptr, ptr, ptr, ptr, ptr, ptr, ptr, ptr, ptr, ptr, ptr, ptr, ptr, ptr, ptr, i32, i32, ptr, ptr, ptr, ptr, ptr, ptr, ptr }
%struct.AVIODirContext = type { ptr }

@.str.2 = private unnamed_addr constant [30 x i8] c"Assertion %s failed at %s:%d\0A\00", align 1
@.str.4 = private unnamed_addr constant [19 x i8] c"libavformat/avio.c\00", align 1
@.str.17 = private unnamed_addr constant [2 x i8] c"s\00", align 1

; Function Attrs: nounwind uwtable
define i32 @ffurl_close(ptr noundef %0) #1 {
  %2 = alloca ptr, align 8
  store ptr %0, ptr %2, align 8, !tbaa !22
  %3 = call i32 @ffurl_closep(ptr noundef %2)
  ret i32 %3
}

; Function Attrs: nounwind uwtable
define i32 @avio_open_dir(ptr noundef %0, ptr noundef %1, ptr noundef %2) #1 {
  %4 = alloca i32, align 4
  %5 = alloca ptr, align 8
  %6 = alloca ptr, align 8
  %7 = alloca ptr, align 8
  %8 = alloca ptr, align 8
  %9 = alloca ptr, align 8
  %10 = alloca i32, align 4
  %11 = alloca i32, align 4
  store ptr %0, ptr %5, align 8, !tbaa !102
  store ptr %1, ptr %6, align 8, !tbaa !20
  store ptr %2, ptr %7, align 8, !tbaa !28
  call void @llvm.lifetime.start.p0(i64 8, ptr %8) #10
  store ptr null, ptr %8, align 8, !tbaa !22
  call void @llvm.lifetime.start.p0(i64 8, ptr %9) #10
  store ptr null, ptr %9, align 8, !tbaa !104
  call void @llvm.lifetime.start.p0(i64 4, ptr %10) #10
  br label %12

12:                                               ; preds = %3
  %13 = load ptr, ptr %5, align 8, !tbaa !102
  %14 = icmp ne ptr %13, null
  br i1 %14, label %16, label %15

15:                                               ; preds = %12
  call void (ptr, i32, ptr, ...) @av_log(ptr noundef null, i32 noundef 0, ptr noundef @.str.2, ptr noundef @.str.17, ptr noundef @.str.4, i32 noundef 730)
  call void @abort() #12
  unreachable

16:                                               ; preds = %12
  br label %17

17:                                               ; preds = %16
  br label %18

18:                                               ; preds = %17
  %19 = call noalias ptr @av_mallocz(i64 noundef 8)
  store ptr %19, ptr %9, align 8, !tbaa !104
  %20 = load ptr, ptr %9, align 8, !tbaa !104
  %21 = icmp ne ptr %20, null
  br i1 %21, label %23, label %22

22:                                               ; preds = %18
  store i32 -12, ptr %10, align 4, !tbaa !21
  br label %88

23:                                               ; preds = %18
  %24 = load ptr, ptr %6, align 8, !tbaa !20
  %25 = call i32 @ffurl_alloc(ptr noundef %8, ptr noundef %24, i32 noundef 1, ptr noundef null)
  store i32 %25, ptr %10, align 4, !tbaa !21
  %26 = icmp slt i32 %25, 0
  br i1 %26, label %27, label %28

27:                                               ; preds = %23
  br label %88

28:                                               ; preds = %23
  %29 = load ptr, ptr %8, align 8, !tbaa !22
  %30 = getelementptr inbounds nuw %struct.URLContext, ptr %29, i32 0, i32 1
  %31 = load ptr, ptr %30, align 8, !tbaa !38
  %32 = getelementptr inbounds nuw %struct.URLProtocol, ptr %31, i32 0, i32 19
  %33 = load ptr, ptr %32, align 8, !tbaa !106
  %34 = icmp ne ptr %33, null
  br i1 %34, label %35, label %75

35:                                               ; preds = %28
  %36 = load ptr, ptr %8, align 8, !tbaa !22
  %37 = getelementptr inbounds nuw %struct.URLContext, ptr %36, i32 0, i32 1
  %38 = load ptr, ptr %37, align 8, !tbaa !38
  %39 = getelementptr inbounds nuw %struct.URLProtocol, ptr %38, i32 0, i32 20
  %40 = load ptr, ptr %39, align 8, !tbaa !107
  %41 = icmp ne ptr %40, null
  br i1 %41, label %42, label %75

42:                                               ; preds = %35
  %43 = load ptr, ptr %8, align 8, !tbaa !22
  %44 = getelementptr inbounds nuw %struct.URLContext, ptr %43, i32 0, i32 1
  %45 = load ptr, ptr %44, align 8, !tbaa !38
  %46 = getelementptr inbounds nuw %struct.URLProtocol, ptr %45, i32 0, i32 21
  %47 = load ptr, ptr %46, align 8, !tbaa !108
  %48 = icmp ne ptr %47, null
  br i1 %48, label %49, label %75

49:                                               ; preds = %42
  %50 = load ptr, ptr %7, align 8, !tbaa !28
  %51 = icmp ne ptr %50, null
  br i1 %51, label %52, label %67

52:                                               ; preds = %49
  %53 = load ptr, ptr %8, align 8, !tbaa !22
  %54 = getelementptr inbounds nuw %struct.URLContext, ptr %53, i32 0, i32 1
  %55 = load ptr, ptr %54, align 8, !tbaa !38
  %56 = getelementptr inbounds nuw %struct.URLProtocol, ptr %55, i32 0, i32 15
  %57 = load ptr, ptr %56, align 8, !tbaa !83
  %58 = icmp ne ptr %57, null
  br i1 %58, label %59, label %67

59:                                               ; preds = %52
  %60 = load ptr, ptr %8, align 8, !tbaa !22
  %61 = getelementptr inbounds nuw %struct.URLContext, ptr %60, i32 0, i32 2
  %62 = load ptr, ptr %61, align 8, !tbaa !82
  %63 = load ptr, ptr %7, align 8, !tbaa !28
  %64 = call i32 @av_opt_set_dict(ptr noundef %62, ptr noundef %63)
  store i32 %64, ptr %10, align 4, !tbaa !21
  %65 = icmp slt i32 %64, 0
  br i1 %65, label %66, label %67

66:                                               ; preds = %59
  br label %88

67:                                               ; preds = %59, %52, %49
  %68 = load ptr, ptr %8, align 8, !tbaa !22
  %69 = getelementptr inbounds nuw %struct.URLContext, ptr %68, i32 0, i32 1
  %70 = load ptr, ptr %69, align 8, !tbaa !38
  %71 = getelementptr inbounds nuw %struct.URLProtocol, ptr %70, i32 0, i32 19
  %72 = load ptr, ptr %71, align 8, !tbaa !106
  %73 = load ptr, ptr %8, align 8, !tbaa !22
  %74 = call i32 %72(ptr noundef %73)
  store i32 %74, ptr %10, align 4, !tbaa !21
  br label %76

75:                                               ; preds = %42, %35, %28
  store i32 -38, ptr %10, align 4, !tbaa !21
  br label %76

76:                                               ; preds = %75, %67
  %77 = load i32, ptr %10, align 4, !tbaa !21
  %78 = icmp slt i32 %77, 0
  br i1 %78, label %79, label %80

79:                                               ; preds = %76
  br label %88

80:                                               ; preds = %76
  %81 = load ptr, ptr %8, align 8, !tbaa !22
  %82 = getelementptr inbounds nuw %struct.URLContext, ptr %81, i32 0, i32 7
  store i32 1, ptr %82, align 4, !tbaa !45
  %83 = load ptr, ptr %8, align 8, !tbaa !22
  %84 = load ptr, ptr %9, align 8, !tbaa !104
  %85 = getelementptr inbounds nuw %struct.AVIODirContext, ptr %84, i32 0, i32 0
  store ptr %83, ptr %85, align 8, !tbaa !109
  %86 = load ptr, ptr %9, align 8, !tbaa !104
  %87 = load ptr, ptr %5, align 8, !tbaa !102
  store ptr %86, ptr %87, align 8, !tbaa !104
  store i32 0, ptr %4, align 4
  store i32 1, ptr %11, align 4
  br label %94

88:                                               ; preds = %79, %66, %27, %22
  %89 = load ptr, ptr %9, align 8, !tbaa !104
  call void @av_free(ptr noundef %89)
  %90 = load ptr, ptr %5, align 8, !tbaa !102
  store ptr null, ptr %90, align 8, !tbaa !104
  %91 = load ptr, ptr %8, align 8, !tbaa !22
  %92 = call i32 @ffurl_close(ptr noundef %91)
  %93 = load i32, ptr %10, align 4, !tbaa !21
  store i32 %93, ptr %4, align 4
  store i32 1, ptr %11, align 4
  br label %94

94:                                               ; preds = %88, %80
  call void @llvm.lifetime.end.p0(i64 4, ptr %10) #10
  call void @llvm.lifetime.end.p0(i64 8, ptr %9) #10
  call void @llvm.lifetime.end.p0(i64 8, ptr %8) #10
  %95 = load i32, ptr %4, align 4
  ret i32 %95
}