; Function Attrs: nounwind uwtable
define range(i32 -2147483648, 1) i32 @avio_open_dir(ptr noundef writeonly captures(address_is_null) %0, ptr noundef %1, ptr noundef %2) local_unnamed_addr #3 {
  %4 = alloca ptr, align 8
  %5 = alloca ptr, align 8
  call void @llvm.lifetime.start.p0(i64 8, ptr nonnull %5) #12
  store ptr null, ptr %5, align 8, !tbaa !41
  %.not = icmp eq ptr %0, null
  br i1 %.not, label %6, label %7

6:                                                ; preds = %3
  tail call void (ptr, i32, ptr, ...) @av_log(ptr noundef null, i32 noundef 0, ptr noundef nonnull @.str.2, ptr noundef nonnull @.str.17, ptr noundef nonnull @.str.4, i32 noundef 730) #12
  tail call void @abort() #14
  unreachable

7:                                                ; preds = %3
  %8 = tail call noalias ptr @av_mallocz(i64 noundef 8) #12
  %.not18 = icmp eq ptr %8, null
  br i1 %.not18, label %.thread, label %9

9:                                                ; preds = %7
  %10 = call i32 @ffurl_alloc(ptr noundef nonnull %5, ptr noundef %1, i32 noundef 1, ptr noundef null)
  %11 = icmp slt i32 %10, 0
  %.pre26 = load ptr, ptr %5, align 8, !tbaa !41
  br i1 %11, label %.thread, label %12

12:                                               ; preds = %9
  %13 = getelementptr inbounds nuw i8, ptr %.pre26, i64 8
  %14 = load ptr, ptr %13, align 8, !tbaa !21
  %15 = getelementptr inbounds nuw i8, ptr %14, i64 144
  %16 = load ptr, ptr %15, align 8, !tbaa !89
  %.not19 = icmp eq ptr %16, null
  br i1 %.not19, label %.thread, label %17

17:                                               ; preds = %12
  %18 = getelementptr inbounds nuw i8, ptr %14, i64 152
  %19 = load ptr, ptr %18, align 8, !tbaa !90
  %.not20 = icmp eq ptr %19, null
  br i1 %.not20, label %.thread, label %20

20:                                               ; preds = %17
  %21 = getelementptr inbounds nuw i8, ptr %14, i64 160
  %22 = load ptr, ptr %21, align 8, !tbaa !91
  %.not21 = icmp eq ptr %22, null
  br i1 %.not21, label %.thread, label %23

23:                                               ; preds = %20
  %.not22 = icmp eq ptr %2, null
  br i1 %.not22, label %32, label %24

24:                                               ; preds = %23
  %25 = getelementptr inbounds nuw i8, ptr %14, i64 120
  %26 = load ptr, ptr %25, align 8, !tbaa !68
  %.not23 = icmp eq ptr %26, null
  br i1 %.not23, label %32, label %27

27:                                               ; preds = %24
  %28 = getelementptr inbounds nuw i8, ptr %.pre26, i64 16
  %29 = load ptr, ptr %28, align 8, !tbaa !67
  %30 = tail call i32 @av_opt_set_dict(ptr noundef %29, ptr noundef nonnull %2) #12
  %31 = icmp slt i32 %30, 0
  br i1 %31, label %.thread, label %._crit_edge

._crit_edge:                                      ; preds = %27
  %.pre = load ptr, ptr %13, align 8, !tbaa !21
  %.phi.trans.insert = getelementptr inbounds nuw i8, ptr %.pre, i64 144
  %.pre25 = load ptr, ptr %.phi.trans.insert, align 8, !tbaa !89
  br label %32

32:                                               ; preds = %._crit_edge, %23, %24
  %33 = phi ptr [ %.pre25, %._crit_edge ], [ %16, %23 ], [ %16, %24 ]
  %34 = tail call i32 %33(ptr noundef nonnull %.pre26) #12
  %35 = icmp slt i32 %34, 0
  br i1 %35, label %.thread, label %36

36:                                               ; preds = %32
  %37 = getelementptr inbounds nuw i8, ptr %.pre26, i64 44
  store i32 1, ptr %37, align 4, !tbaa !38
  store ptr %.pre26, ptr %8, align 8, !tbaa !92
  store ptr %8, ptr %0, align 8, !tbaa !94
  br label %40

.thread:                                          ; preds = %12, %17, %20, %7, %32, %27, %9
  %38 = phi ptr [ %.pre26, %9 ], [ %.pre26, %27 ], [ %.pre26, %32 ], [ null, %7 ], [ %.pre26, %20 ], [ %.pre26, %17 ], [ %.pre26, %12 ]
  %.0 = phi i32 [ %10, %9 ], [ %30, %27 ], [ %34, %32 ], [ -12, %7 ], [ -38, %20 ], [ -38, %17 ], [ -38, %12 ]
  tail call void @av_free(ptr noundef %8) #12
  store ptr null, ptr %0, align 8, !tbaa !94
  call void @llvm.lifetime.start.p0(i64 8, ptr nonnull %4)
  store ptr %38, ptr %4, align 8, !tbaa !41
  %39 = call i32 @ffurl_closep(ptr noundef nonnull %4)
  call void @llvm.lifetime.end.p0(i64 8, ptr nonnull %4)
  br label %40

40:                                               ; preds = %.thread, %36
  %.012 = phi i32 [ %.0, %.thread ], [ 0, %36 ]
  call void @llvm.lifetime.end.p0(i64 8, ptr nonnull %5) #12
  ret i32 %.012
}